target datalayout = "e-m:e-p270:32:32-p271:32:32-p272:64:64-i64:64-i128:128-f80:128-n8:16:32:64-S128"
target triple = "x86_64-pc-linux-gnu"

%struct.ECDSA_SIG_st = type { ptr, ptr }

@.str.2 = private unnamed_addr constant [31 x i8] c"../openssl/crypto/ec/ec_asn1.c\00", align 1

; Function Attrs: nounwind uwtable
define void @ECDSA_SIG_free(ptr noundef %0) #0 {
  %2 = alloca ptr, align 8
  store ptr %0, ptr %2, align 8, !tbaa !103
  %3 = load ptr, ptr %2, align 8, !tbaa !103
  %4 = icmp eq ptr %3, null
  br i1 %4, label %5, label %6

5:                                                ; preds = %1
  br label %14

6:                                                ; preds = %1
  %7 = load ptr, ptr %2, align 8, !tbaa !103
  %8 = getelementptr inbounds nuw %struct.ECDSA_SIG_st, ptr %7, i32 0, i32 0
  %9 = load ptr, ptr %8, align 8, !tbaa !105
  call void @BN_clear_free(ptr noundef %9)
  %10 = load ptr, ptr %2, align 8, !tbaa !103
  %11 = getelementptr inbounds nuw %struct.ECDSA_SIG_st, ptr %10, i32 0, i32 1
  %12 = load ptr, ptr %11, align 8, !tbaa !107
  call void @BN_clear_free(ptr noundef %12)
  %13 = load ptr, ptr %2, align 8, !tbaa !103
  call void @CRYPTO_free(ptr noundef %13, ptr noundef @.str.2, i32 noundef 1208)
  br label %14

14:                                               ; preds = %6, %5
  ret void
}

; Function Attrs: nounwind uwtable
define ptr @ECDSA_SIG_new() #0 {
  %1 = alloca ptr, align 8
  call void @llvm.lifetime.start.p0(i64 8, ptr %1) #4
  %2 = call noalias ptr @CRYPTO_zalloc(i64 noundef 16, ptr noundef @.str.2, i32 noundef 1197)
  store ptr %2, ptr %1, align 8, !tbaa !103
  %3 = load ptr, ptr %1, align 8, !tbaa !103
  call void @llvm.lifetime.end.p0(i64 8, ptr %1) #4
  ret ptr %3
}

; Function Attrs: nounwind uwtable
define ptr @d2i_ECDSA_SIG(ptr noundef %0, ptr noundef %1, i64 noundef %2) #0 {
  %4 = alloca ptr, align 8
  %5 = alloca ptr, align 8
  %6 = alloca ptr, align 8
  %7 = alloca i64, align 8
  %8 = alloca ptr, align 8
  %9 = alloca i32, align 4
  store ptr %0, ptr %5, align 8, !tbaa !108
  store ptr %1, ptr %6, align 8, !tbaa !14
  store i64 %2, ptr %7, align 8, !tbaa !16
  call void @llvm.lifetime.start.p0(i64 8, ptr %8) #4
  %10 = load i64, ptr %7, align 8, !tbaa !16
  %11 = icmp slt i64 %10, 0
  br i1 %11, label %12, label %13

12:                                               ; preds = %3
  store ptr null, ptr %4, align 8
  store i32 1, ptr %9, align 4
  br label %90

13:                                               ; preds = %3
  %14 = load ptr, ptr %5, align 8, !tbaa !108
  %15 = icmp ne ptr %14, null
  br i1 %15, label %16, label %23

16:                                               ; preds = %13
  %17 = load ptr, ptr %5, align 8, !tbaa !108
  %18 = load ptr, ptr %17, align 8, !tbaa !103
  %19 = icmp ne ptr %18, null
  br i1 %19, label %20, label %23

20:                                               ; preds = %16
  %21 = load ptr, ptr %5, align 8, !tbaa !108
  %22 = load ptr, ptr %21, align 8, !tbaa !103
  store ptr %22, ptr %8, align 8, !tbaa !103
  br label %29

23:                                               ; preds = %16, %13
  %24 = call ptr @ECDSA_SIG_new()
  store ptr %24, ptr %8, align 8, !tbaa !103
  %25 = load ptr, ptr %8, align 8, !tbaa !103
  %26 = icmp eq ptr %25, null
  br i1 %26, label %27, label %28

27:                                               ; preds = %23
  store ptr null, ptr %4, align 8
  store i32 1, ptr %9, align 4
  br label %90

28:                                               ; preds = %23
  br label %29

29:                                               ; preds = %28, %20
  %30 = load ptr, ptr %8, align 8, !tbaa !103
  %31 = getelementptr inbounds nuw %struct.ECDSA_SIG_st, ptr %30, i32 0, i32 0
  %32 = load ptr, ptr %31, align 8, !tbaa !105
  %33 = icmp eq ptr %32, null
  br i1 %33, label %34, label %38

34:                                               ; preds = %29
  %35 = call ptr @BN_new()
  %36 = load ptr, ptr %8, align 8, !tbaa !103
  %37 = getelementptr inbounds nuw %struct.ECDSA_SIG_st, ptr %36, i32 0, i32 0
  store ptr %35, ptr %37, align 8, !tbaa !105
  br label %38

38:                                               ; preds = %34, %29
  %39 = load ptr, ptr %8, align 8, !tbaa !103
  %40 = getelementptr inbounds nuw %struct.ECDSA_SIG_st, ptr %39, i32 0, i32 1
  %41 = load ptr, ptr %40, align 8, !tbaa !107
  %42 = icmp eq ptr %41, null
  br i1 %42, label %43, label %47

43:                                               ; preds = %38
  %44 = call ptr @BN_new()
  %45 = load ptr, ptr %8, align 8, !tbaa !103
  %46 = getelementptr inbounds nuw %struct.ECDSA_SIG_st, ptr %45, i32 0, i32 1
  store ptr %44, ptr %46, align 8, !tbaa !107
  br label %47

47:                                               ; preds = %43, %38
  %48 = load ptr, ptr %8, align 8, !tbaa !103
  %49 = getelementptr inbounds nuw %struct.ECDSA_SIG_st, ptr %48, i32 0, i32 0
  %50 = load ptr, ptr %49, align 8, !tbaa !105
  %51 = icmp eq ptr %50, null
  br i1 %51, label %68, label %52

52:                                               ; preds = %47
  %53 = load ptr, ptr %8, align 8, !tbaa !103
  %54 = getelementptr inbounds nuw %struct.ECDSA_SIG_st, ptr %53, i32 0, i32 1
  %55 = load ptr, ptr %54, align 8, !tbaa !107
  %56 = icmp eq ptr %55, null
  br i1 %56, label %68, label %57

57:                                               ; preds = %52
  %58 = load ptr, ptr %8, align 8, !tbaa !103
  %59 = getelementptr inbounds nuw %struct.ECDSA_SIG_st, ptr %58, i32 0, i32 0
  %60 = load ptr, ptr %59, align 8, !tbaa !105
  %61 = load ptr, ptr %8, align 8, !tbaa !103
  %62 = getelementptr inbounds nuw %struct.ECDSA_SIG_st, ptr %61, i32 0, i32 1
  %63 = load ptr, ptr %62, align 8, !tbaa !107
  %64 = load ptr, ptr %6, align 8, !tbaa !14
  %65 = load i64, ptr %7, align 8, !tbaa !16
  %66 = call i64 @ossl_decode_der_dsa_sig(ptr noundef %60, ptr noundef %63, ptr noundef %64, i64 noundef %65)
  %67 = icmp eq i64 %66, 0
  br i1 %67, label %68, label %78

68:                                               ; preds = %57, %52, %47
  %69 = load ptr, ptr %5, align 8, !tbaa !108
  %70 = icmp eq ptr %69, null
  br i1 %70, label %75, label %71

71:                                               ; preds = %68
  %72 = load ptr, ptr %5, align 8, !tbaa !108
  %73 = load ptr, ptr %72, align 8, !tbaa !103
  %74 = icmp eq ptr %73, null
  br i1 %74, label %75, label %77

75:                                               ; preds = %71, %68
  %76 = load ptr, ptr %8, align 8, !tbaa !103
  call void @ECDSA_SIG_free(ptr noundef %76)
  br label %77

77:                                               ; preds = %75, %71
  store ptr null, ptr %4, align 8
  store i32 1, ptr %9, align 4
  br label %90

78:                                               ; preds = %57
  %79 = load ptr, ptr %5, align 8, !tbaa !108
  %80 = icmp ne ptr %79, null
  br i1 %80, label %81, label %88

81:                                               ; preds = %78
  %82 = load ptr, ptr %5, align 8, !tbaa !108
  %83 = load ptr, ptr %82, align 8, !tbaa !103
  %84 = icmp eq ptr %83, null
  br i1 %84, label %85, label %88

85:                                               ; preds = %81
  %86 = load ptr, ptr %8, align 8, !tbaa !103
  %87 = load ptr, ptr %5, align 8, !tbaa !108
  store ptr %86, ptr %87, align 8, !tbaa !103
  br label %88

88:                                               ; preds = %85, %81, %78
  %89 = load ptr, ptr %8, align 8, !tbaa !103
  store ptr %89, ptr %4, align 8
  store i32 1, ptr %9, align 4
  br label %90

90:                                               ; preds = %88, %77, %27, %12
  call void @llvm.lifetime.end.p0(i64 8, ptr %8) #4
  %91 = load ptr, ptr %4, align 8
  ret ptr %91
}