; Function Attrs: nounwind uwtable
define noundef ptr @d2i_ECDSA_SIG(ptr noundef captures(address_is_null) %0, ptr noundef %1, i64 noundef %2) local_unnamed_addr #0 {
  %4 = icmp slt i64 %2, 0
  br i1 %4, label %43, label %5

5:                                                ; preds = %3
  %.not = icmp eq ptr %0, null
  br i1 %.not, label %8, label %6

6:                                                ; preds = %5
  %7 = load ptr, ptr %0, align 8, !tbaa !78
  %.not30 = icmp eq ptr %7, null
  br i1 %.not30, label %8, label %11

8:                                                ; preds = %6, %5
  %9 = tail call noalias ptr @CRYPTO_zalloc(i64 noundef 16, ptr noundef nonnull @.str.2, i32 noundef 1197) #8
  %10 = icmp eq ptr %9, null
  br i1 %10, label %43, label %11

11:                                               ; preds = %6, %8
  %.0 = phi ptr [ %9, %8 ], [ %7, %6 ]
  %12 = load ptr, ptr %.0, align 8, !tbaa !75
  %13 = icmp eq ptr %12, null
  br i1 %13, label %14, label %16

14:                                               ; preds = %11
  %15 = tail call ptr @BN_new() #8
  store ptr %15, ptr %.0, align 8, !tbaa !75
  br label %16

16:                                               ; preds = %14, %11
  %17 = phi ptr [ %15, %14 ], [ %12, %11 ]
  %18 = getelementptr inbounds nuw i8, ptr %.0, i64 8
  %19 = load ptr, ptr %18, align 8, !tbaa !77
  %20 = icmp eq ptr %19, null
  br i1 %20, label %21, label %23

21:                                               ; preds = %16
  %22 = tail call ptr @BN_new() #8
  store ptr %22, ptr %18, align 8, !tbaa !77
  %.pre = load ptr, ptr %.0, align 8, !tbaa !75
  br label %23

23:                                               ; preds = %21, %16
  %24 = phi ptr [ %22, %21 ], [ %19, %16 ]
  %25 = phi ptr [ %.pre, %21 ], [ %17, %16 ]
  %26 = icmp eq ptr %25, null
  %27 = icmp eq ptr %24, null
  %or.cond = select i1 %26, i1 true, i1 %27
  br i1 %or.cond, label %31, label %28

28:                                               ; preds = %23
  %29 = tail call i64 @ossl_decode_der_dsa_sig(ptr noundef nonnull %25, ptr noundef nonnull %24, ptr noundef %1, i64 noundef %2) #8
  %30 = icmp eq i64 %29, 0
  br i1 %30, label %31, label %38

31:                                               ; preds = %28, %23
  br i1 %.not, label %35, label %32

32:                                               ; preds = %31
  %33 = load ptr, ptr %0, align 8, !tbaa !78
  %34 = icmp eq ptr %33, null
  br i1 %34, label %35, label %43

35:                                               ; preds = %32, %31
  %36 = load ptr, ptr %.0, align 8, !tbaa !75
  tail call void @BN_clear_free(ptr noundef %36) #8
  %37 = load ptr, ptr %18, align 8, !tbaa !77
  tail call void @BN_clear_free(ptr noundef %37) #8
  tail call void @CRYPTO_free(ptr noundef nonnull %.0, ptr noundef nonnull @.str.2, i32 noundef 1208) #8
  br label %43

38:                                               ; preds = %28
  br i1 %.not, label %43, label %39

39:                                               ; preds = %38
  %40 = load ptr, ptr %0, align 8, !tbaa !78
  %41 = icmp eq ptr %40, null
  br i1 %41, label %42, label %43

42:                                               ; preds = %39
  store ptr %.0, ptr %0, align 8, !tbaa !78
  br label %43

43:                                               ; preds = %38, %39, %42, %32, %35, %8, %3
  %.023 = phi ptr [ null, %3 ], [ null, %8 ], [ null, %35 ], [ null, %32 ], [ %.0, %42 ], [ %.0, %39 ], [ %.0, %38 ]
  ret ptr %.023
}